target datalayout = "e-m:e-p270:32:32-p271:32:32-p272:64:64-i64:64-i128:128-f80:128-n8:16:32:64-S128"
target triple = "x86_64-pc-linux-gnu"

%struct.dt_pthread_mutex_t = type { %union.pthread_mutex_t }
%union.pthread_mutex_t = type { %struct.__pthread_mutex_s }
%struct.__pthread_mutex_s = type { i32, i32, i32, i32, i32, i16, i16, %struct.__pthread_internal_list }
%struct.__pthread_internal_list = type { ptr, ptr }
%struct.dt_iop_module_t = type { i32, ptr, ptr, ptr, ptr, ptr, ptr, ptr, ptr, ptr, ptr, ptr, ptr, ptr, ptr, ptr, ptr, ptr, ptr, ptr, ptr, ptr, ptr, ptr, ptr, ptr, ptr, ptr, ptr, ptr, ptr, ptr, ptr, ptr, ptr, ptr, ptr, ptr, ptr, ptr, ptr, ptr, ptr, ptr, ptr, ptr, ptr, ptr, ptr, ptr, ptr, ptr, ptr, ptr, ptr, ptr, ptr, [20 x i8], i32, i32, i32, i32, i32, i32, i32, [8 x i8], [4 x float], [4 x float], [4 x float], [4 x float], [4 x float], [4 x float], ptr, %struct.dt_dev_histogram_stats_t, [4 x i32], i32, i32, ptr, i32, i32, ptr, ptr, i32, ptr, %struct.dt_pthread_mutex_t, ptr, ptr, ptr, ptr, %struct.anon.14, ptr, ptr, ptr, ptr, ptr, ptr, ptr, i32, ptr, ptr, ptr, ptr, ptr, ptr, ptr, i32, ptr, i32, [128 x i8], i32, ptr, ptr, i32, [12 x i8] }
%struct.dt_dev_histogram_stats_t = type { i32, i64, i32, i32 }
%struct.anon.14 = type { %struct.anon.15, %struct.anon.16 }
%struct.anon.15 = type { ptr, ptr }
%struct.anon.16 = type { ptr, i32 }
%struct.dt_dev_pixelpipe_iop_t = type { ptr, ptr, ptr, ptr, i32, i32, %struct.dt_dev_histogram_collection_params_t, ptr, %struct.dt_dev_histogram_stats_t, [4 x i32], float, i32, i32, i64, i32, i32, %struct.dt_iop_roi_t, %struct.dt_iop_roi_t, %struct.dt_iop_roi_t, %struct.dt_iop_roi_t, i32, i32, %struct.dt_iop_buffer_dsc_t, %struct.dt_iop_buffer_dsc_t, ptr, [8 x i8] }
%struct.dt_dev_histogram_collection_params_t = type { ptr, i32 }
%struct.dt_iop_roi_t = type { i32, i32, i32, i32, float }
%struct.dt_iop_buffer_dsc_t = type { i32, i32, i32, [6 x [6 x i8]], %struct.anon.3, [12 x i8], %struct.anon.4, [4 x float], i32, [12 x i8] }
%struct.anon.3 = type { i16, i16 }
%struct.anon.4 = type { i32, [12 x i8], [4 x float] }
%struct.dt_dev_pixelpipe_t = type { %struct.dt_dev_pixelpipe_cache_t, i32, i64, ptr, i32, i32, float, i32, i32, [12 x i8], %struct.dt_iop_buffer_dsc_t, ptr, ptr, ptr, ptr, i32, i32, i32, i32, ptr, i64, i32, i32, float, float, float, i64, %struct.dt_pthread_mutex_t, %struct.dt_pthread_mutex_t, %struct.dt_pthread_mutex_t, i32, i32, i32, %struct.dt_dev_detail_mask_t, i32, i32, i32, i32, i32, i32, i32, i32, i32, i32, i32, i32, i32, i32, [8 x i8], %struct.dt_image_t, i32, ptr, i32, ptr, ptr, ptr, i32, ptr, i64, [8 x i8] }
%struct.dt_dev_pixelpipe_cache_t = type { i32, i64, i64, ptr, ptr, ptr, ptr, ptr, ptr, i64, i32, i64, i64, i32, i32, i32 }
%struct.dt_dev_detail_mask_t = type { %struct.dt_iop_roi_t, i64, ptr }
%struct.dt_image_t = type { i32, i32, float, float, float, float, float, float, float, [64 x i8], [64 x i8], [128 x i8], [64 x i8], [64 x i8], [64 x i8], [64 x i8], i64, i32, %union.dt_image_correction_data_t, [64 x i8], [64 x i8], [64 x i8], [128 x i8], i32, [256 x i8], i32, i32, i32, i32, i32, i32, i32, i32, i32, i32, float, i32, i32, i32, i32, i32, i32, i64, i64, i64, i64, i32, [12 x i8], %struct.dt_iop_buffer_dsc_t, [9 x float], ptr, i32, i32, %struct.dt_image_raw_parameters_t, %struct.dt_image_geoloc_t, %struct._color_harmony_t, i16, [4 x i16], i32, i32, float, float, [4 x float], [4 x [3 x float]], [4 x float], ptr, ptr, i32, i32, [8 x i8] }
%union.dt_image_correction_data_t = type { %struct.anon.0 }
%struct.anon.0 = type { i32, float, [11 x float], [11 x float], [11 x float], [11 x float], [11 x float] }
%struct.dt_image_raw_parameters_t = type { i32 }
%struct.dt_image_geoloc_t = type { double, double, double }
%struct._color_harmony_t = type { i32, i32, i32 }

; Function Attrs: inlinehint nounwind uwtable
define internal i32 @_nb_ctrl_point() #7 {
  ret i32 3
}

; Function Attrs: nounwind uwtable
define internal i32 @_gradient_get_area(ptr noundef %0, ptr noundef %1, ptr noundef %2, ptr noundef %3, ptr noundef %4, ptr noundef %5, ptr noundef %6) #0 {
  %8 = alloca i32, align 4
  %9 = alloca ptr, align 8
  %10 = alloca ptr, align 8
  %11 = alloca ptr, align 8
  %12 = alloca ptr, align 8
  %13 = alloca ptr, align 8
  %14 = alloca ptr, align 8
  %15 = alloca ptr, align 8
  %16 = alloca float, align 4
  %17 = alloca float, align 4
  %18 = alloca [8 x float], align 16
  %19 = alloca i32, align 4
  %20 = alloca float, align 4
  %21 = alloca float, align 4
  %22 = alloca float, align 4
  %23 = alloca float, align 4
  %24 = alloca i32, align 4
  store ptr %0, ptr %9, align 8, !tbaa !60
  store ptr %1, ptr %10, align 8, !tbaa !61
  store ptr %2, ptr %11, align 8, !tbaa !10
  store ptr %3, ptr %12, align 8, !tbaa !32
  store ptr %4, ptr %13, align 8, !tbaa !32
  store ptr %5, ptr %14, align 8, !tbaa !32
  store ptr %6, ptr %15, align 8, !tbaa !32
  call void @llvm.lifetime.start.p0(i64 4, ptr %16) #11
  %25 = load ptr, ptr %10, align 8, !tbaa !61
  %26 = getelementptr inbounds nuw %struct.dt_dev_pixelpipe_iop_t, ptr %25, i32 0, i32 1
  %27 = load ptr, ptr %26, align 8, !tbaa !108
  %28 = getelementptr inbounds nuw %struct.dt_dev_pixelpipe_t, ptr %27, i32 0, i32 4
  %29 = load i32, ptr %28, align 16, !tbaa !119
  %30 = sitofp i32 %29 to float
  store float %30, ptr %16, align 4, !tbaa !29
  call void @llvm.lifetime.start.p0(i64 4, ptr %17) #11
  %31 = load ptr, ptr %10, align 8, !tbaa !61
  %32 = getelementptr inbounds nuw %struct.dt_dev_pixelpipe_iop_t, ptr %31, i32 0, i32 1
  %33 = load ptr, ptr %32, align 8, !tbaa !108
  %34 = getelementptr inbounds nuw %struct.dt_dev_pixelpipe_t, ptr %33, i32 0, i32 5
  %35 = load i32, ptr %34, align 4, !tbaa !131
  %36 = sitofp i32 %35 to float
  store float %36, ptr %17, align 4, !tbaa !29
  call void @llvm.lifetime.start.p0(i64 32, ptr %18) #11
  store float 0.000000e+00, ptr %18, align 4, !tbaa !29
  %37 = getelementptr inbounds float, ptr %18, i64 1
  store float 0.000000e+00, ptr %37, align 4, !tbaa !29
  %38 = getelementptr inbounds float, ptr %18, i64 2
  %39 = load float, ptr %16, align 4, !tbaa !29
  store float %39, ptr %38, align 4, !tbaa !29
  %40 = getelementptr inbounds float, ptr %18, i64 3
  store float 0.000000e+00, ptr %40, align 4, !tbaa !29
  %41 = getelementptr inbounds float, ptr %18, i64 4
  %42 = load float, ptr %16, align 4, !tbaa !29
  store float %42, ptr %41, align 4, !tbaa !29
  %43 = getelementptr inbounds float, ptr %18, i64 5
  %44 = load float, ptr %17, align 4, !tbaa !29
  store float %44, ptr %43, align 4, !tbaa !29
  %45 = getelementptr inbounds float, ptr %18, i64 6
  store float 0.000000e+00, ptr %45, align 4, !tbaa !29
  %46 = getelementptr inbounds float, ptr %18, i64 7
  %47 = load float, ptr %17, align 4, !tbaa !29
  store float %47, ptr %46, align 4, !tbaa !29
  %48 = load ptr, ptr %9, align 8, !tbaa !60
  %49 = getelementptr inbounds nuw %struct.dt_iop_module_t, ptr %48, i32 0, i32 77
  %50 = load ptr, ptr %49, align 8, !tbaa !97
  %51 = load ptr, ptr %10, align 8, !tbaa !61
  %52 = getelementptr inbounds nuw %struct.dt_dev_pixelpipe_iop_t, ptr %51, i32 0, i32 1
  %53 = load ptr, ptr %52, align 8, !tbaa !108
  %54 = load ptr, ptr %9, align 8, !tbaa !60
  %55 = getelementptr inbounds nuw %struct.dt_iop_module_t, ptr %54, i32 0, i32 59
  %56 = load i32, ptr %55, align 16, !tbaa !118
  %57 = sitofp i32 %56 to double
  %58 = getelementptr inbounds [8 x float], ptr %18, i64 0, i64 0
  %59 = call i32 @dt_dev_distort_transform_plus(ptr noundef %50, ptr noundef %53, double noundef %57, i32 noundef 3, ptr noundef %58, i64 noundef 4)
  %60 = icmp ne i32 %59, 0
  br i1 %60, label %62, label %61

61:                                               ; preds = %7
  store i32 0, ptr %8, align 4
  store i32 1, ptr %19, align 4
  br label %119

62:                                               ; preds = %7
  call void @llvm.lifetime.start.p0(i64 4, ptr %20) #11
  store float 0.000000e+00, ptr %20, align 4, !tbaa !29
  call void @llvm.lifetime.start.p0(i64 4, ptr %21) #11
  store float 0.000000e+00, ptr %21, align 4, !tbaa !29
  call void @llvm.lifetime.start.p0(i64 4, ptr %22) #11
  store float 0.000000e+00, ptr %22, align 4, !tbaa !29
  call void @llvm.lifetime.start.p0(i64 4, ptr %23) #11
  store float 0.000000e+00, ptr %23, align 4, !tbaa !29
  store float 0x47EFFFFFE0000000, ptr %22, align 4, !tbaa !29
  store float 0x47EFFFFFE0000000, ptr %20, align 4, !tbaa !29
  store float 0x3810000000000000, ptr %23, align 4, !tbaa !29
  store float 0x3810000000000000, ptr %21, align 4, !tbaa !29
  call void @llvm.lifetime.start.p0(i64 4, ptr %24) #11
  store i32 0, ptr %24, align 4, !tbaa !6
  br label %63

63:                                               ; preds = %99, %62
  %64 = load i32, ptr %24, align 4, !tbaa !6
  %65 = call i32 @_nb_ctrl_point()
  %66 = icmp slt i32 %64, %65
  br i1 %66, label %68, label %67

67:                                               ; preds = %63
  store i32 2, ptr %19, align 4
  call void @llvm.lifetime.end.p0(i64 4, ptr %24) #11
  br label %102

68:                                               ; preds = %63
  %69 = load i32, ptr %24, align 4, !tbaa !6
  %70 = mul nsw i32 %69, 2
  %71 = sext i32 %70 to i64
  %72 = getelementptr inbounds [8 x float], ptr %18, i64 0, i64 %71
  %73 = load float, ptr %72, align 4, !tbaa !29
  %74 = load float, ptr %20, align 4, !tbaa !29
  %75 = call reassoc nsz arcp contract afn float @llvm.minnum.f32(float %73, float %74)
  store float %75, ptr %20, align 4, !tbaa !29
  %76 = load i32, ptr %24, align 4, !tbaa !6
  %77 = mul nsw i32 %76, 2
  %78 = sext i32 %77 to i64
  %79 = getelementptr inbounds [8 x float], ptr %18, i64 0, i64 %78
  %80 = load float, ptr %79, align 4, !tbaa !29
  %81 = load float, ptr %21, align 4, !tbaa !29
  %82 = call reassoc nsz arcp contract afn float @llvm.maxnum.f32(float %80, float %81)
  store float %82, ptr %21, align 4, !tbaa !29
  %83 = load i32, ptr %24, align 4, !tbaa !6
  %84 = mul nsw i32 %83, 2
  %85 = add nsw i32 %84, 1
  %86 = sext i32 %85 to i64
  %87 = getelementptr inbounds [8 x float], ptr %18, i64 0, i64 %86
  %88 = load float, ptr %87, align 4, !tbaa !29
  %89 = load float, ptr %22, align 4, !tbaa !29
  %90 = call reassoc nsz arcp contract afn float @llvm.minnum.f32(float %88, float %89)
  store float %90, ptr %22, align 4, !tbaa !29
  %91 = load i32, ptr %24, align 4, !tbaa !6
  %92 = mul nsw i32 %91, 2
  %93 = add nsw i32 %92, 1
  %94 = sext i32 %93 to i64
  %95 = getelementptr inbounds [8 x float], ptr %18, i64 0, i64 %94
  %96 = load float, ptr %95, align 4, !tbaa !29
  %97 = load float, ptr %23, align 4, !tbaa !29
  %98 = call reassoc nsz arcp contract afn float @llvm.maxnum.f32(float %96, float %97)
  store float %98, ptr %23, align 4, !tbaa !29
  br label %99

99:                                               ; preds = %68
  %100 = load i32, ptr %24, align 4, !tbaa !6
  %101 = add nsw i32 %100, 1
  store i32 %101, ptr %24, align 4, !tbaa !6
  br label %63

102:                                              ; preds = %67
  %103 = load float, ptr %20, align 4, !tbaa !29
  %104 = fptosi float %103 to i32
  %105 = load ptr, ptr %14, align 8, !tbaa !32
  store i32 %104, ptr %105, align 4, !tbaa !6
  %106 = load float, ptr %22, align 4, !tbaa !29
  %107 = fptosi float %106 to i32
  %108 = load ptr, ptr %15, align 8, !tbaa !32
  store i32 %107, ptr %108, align 4, !tbaa !6
  %109 = load float, ptr %21, align 4, !tbaa !29
  %110 = load float, ptr %20, align 4, !tbaa !29
  %111 = fsub reassoc nsz arcp contract afn float %109, %110
  %112 = fptosi float %111 to i32
  %113 = load ptr, ptr %12, align 8, !tbaa !32
  store i32 %112, ptr %113, align 4, !tbaa !6
  %114 = load float, ptr %23, align 4, !tbaa !29
  %115 = load float, ptr %22, align 4, !tbaa !29
  %116 = fsub reassoc nsz arcp contract afn float %114, %115
  %117 = fptosi float %116 to i32
  %118 = load ptr, ptr %13, align 8, !tbaa !32
  store i32 %117, ptr %118, align 4, !tbaa !6
  store i32 1, ptr %8, align 4
  store i32 1, ptr %19, align 4
  call void @llvm.lifetime.end.p0(i64 4, ptr %23) #11
  call void @llvm.lifetime.end.p0(i64 4, ptr %22) #11
  call void @llvm.lifetime.end.p0(i64 4, ptr %21) #11
  call void @llvm.lifetime.end.p0(i64 4, ptr %20) #11
  br label %119

119:                                              ; preds = %102, %61
  call void @llvm.lifetime.end.p0(i64 32, ptr %18) #11
  call void @llvm.lifetime.end.p0(i64 4, ptr %17) #11
  call void @llvm.lifetime.end.p0(i64 4, ptr %16) #11
  %120 = load i32, ptr %8, align 4
  ret i32 %120
}