; Function Attrs: nounwind uwtable
define internal range(i32 0, 2) i32 @_gradient_get_area(ptr noundef readonly captures(none) %0, ptr noundef readonly captures(none) %1, ptr readnone captures(none) %2, ptr noundef writeonly captures(none) %3, ptr noundef writeonly captures(none) %4, ptr noundef writeonly captures(none) %5, ptr noundef writeonly captures(none) %6) #0 {
  %8 = alloca [8 x float], align 16
  %9 = getelementptr inbounds nuw i8, ptr %1, i64 8
  %10 = load ptr, ptr %9, align 8, !tbaa !78
  %11 = getelementptr inbounds nuw i8, ptr %10, i64 144
  %12 = load i32, ptr %11, align 16, !tbaa !90
  %13 = sitofp i32 %12 to float
  %14 = getelementptr inbounds nuw i8, ptr %10, i64 148
  %15 = load i32, ptr %14, align 4, !tbaa !102
  %16 = sitofp i32 %15 to float
  call void @llvm.lifetime.start.p0(i64 32, ptr nonnull %8) #13
  store float 0.000000e+00, ptr %8, align 16, !tbaa !27
  %17 = getelementptr inbounds nuw i8, ptr %8, i64 4
  store float 0.000000e+00, ptr %17, align 4, !tbaa !27
  %18 = getelementptr inbounds nuw i8, ptr %8, i64 8
  store float %13, ptr %18, align 8, !tbaa !27
  %19 = getelementptr inbounds nuw i8, ptr %8, i64 12
  store float 0.000000e+00, ptr %19, align 4, !tbaa !27
  %20 = getelementptr inbounds nuw i8, ptr %8, i64 16
  store float %13, ptr %20, align 16, !tbaa !27
  %21 = getelementptr inbounds nuw i8, ptr %8, i64 20
  store float %16, ptr %21, align 4, !tbaa !27
  %22 = getelementptr inbounds nuw i8, ptr %8, i64 24
  store float 0.000000e+00, ptr %22, align 8, !tbaa !27
  %23 = getelementptr inbounds nuw i8, ptr %8, i64 28
  store float %16, ptr %23, align 4, !tbaa !27
  %24 = getelementptr inbounds nuw i8, ptr %0, i64 664
  %25 = load ptr, ptr %24, align 8, !tbaa !103
  %26 = getelementptr inbounds nuw i8, ptr %0, i64 480
  %27 = load i32, ptr %26, align 16, !tbaa !113
  %28 = sitofp i32 %27 to double
  %29 = call i32 @dt_dev_distort_transform_plus(ptr noundef %25, ptr noundef %10, double noundef %28, i32 noundef 3, ptr noundef nonnull %8, i64 noundef 4) #13
  %.not = icmp eq i32 %29, 0
  br i1 %.not, label %47, label %.preheader

30:                                               ; preds = %.preheader
  %31 = fptosi float %40 to i32
  store i32 %31, ptr %5, align 4, !tbaa !30
  %32 = fptosi float %45 to i32
  store i32 %32, ptr %6, align 4, !tbaa !30
  %33 = fsub reassoc nsz arcp contract afn float %41, %40
  %34 = fptosi float %33 to i32
  store i32 %34, ptr %3, align 4, !tbaa !30
  %35 = fsub reassoc nsz arcp contract afn float %46, %45
  %36 = fptosi float %35 to i32
  store i32 %36, ptr %4, align 4, !tbaa !30
  br label %47

.preheader:                                       ; preds = %7, %.preheader
  %indvars.iv = phi i64 [ %indvars.iv.next, %.preheader ], [ 0, %7 ]
  %.02937 = phi float [ %46, %.preheader ], [ 0x3810000000000000, %7 ]
  %.03036 = phi float [ %45, %.preheader ], [ 0x47EFFFFFE0000000, %7 ]
  %.03135 = phi float [ %41, %.preheader ], [ 0x3810000000000000, %7 ]
  %.03234 = phi float [ %40, %.preheader ], [ 0x47EFFFFFE0000000, %7 ]
  %37 = shl nuw nsw i64 %indvars.iv, 1
  %38 = getelementptr inbounds nuw [8 x float], ptr %8, i64 0, i64 %37
  %39 = load float, ptr %38, align 8, !tbaa !27
  %40 = call reassoc nsz arcp contract afn float @llvm.minnum.f32(float %39, float %.03234)
  %41 = call reassoc nsz arcp contract afn float @llvm.maxnum.f32(float %39, float %.03135)
  %42 = or disjoint i64 %37, 1
  %43 = getelementptr inbounds nuw [8 x float], ptr %8, i64 0, i64 %42
  %44 = load float, ptr %43, align 4, !tbaa !27
  %45 = call reassoc nsz arcp contract afn float @llvm.minnum.f32(float %44, float %.03036)
  %46 = call reassoc nsz arcp contract afn float @llvm.maxnum.f32(float %44, float %.02937)
  %indvars.iv.next = add nuw nsw i64 %indvars.iv, 1
  %exitcond.not = icmp eq i64 %indvars.iv.next, 3
  br i1 %exitcond.not, label %30, label %.preheader

47:                                               ; preds = %7, %30
  %.033 = phi i32 [ 1, %30 ], [ 0, %7 ]
  call void @llvm.lifetime.end.p0(i64 32, ptr nonnull %8) #13
  ret i32 %.033
}